target datalayout = "e-m:e-p270:32:32-p271:32:32-p272:64:64-i64:64-i128:128-f80:128-n8:16:32:64-S128"
target triple = "x86_64-pc-linux-gnu"

@.str = private unnamed_addr constant [19 x i8] c" Begin HASH Tests\0A\00", align 1
@.str.1 = private unnamed_addr constant [26 x i8] c"   MD5      test failed!\0A\00", align 1
@.str.2 = private unnamed_addr constant [26 x i8] c"   MD5      test passed!\0A\00", align 1
@.str.3 = private unnamed_addr constant [26 x i8] c"   SHA      test failed!\0A\00", align 1
@.str.4 = private unnamed_addr constant [26 x i8] c"   SHA      test passed!\0A\00", align 1
@.str.5 = private unnamed_addr constant [26 x i8] c"   SHA-224  test failed!\0A\00", align 1
@.str.6 = private unnamed_addr constant [26 x i8] c"   SHA-224  test passed!\0A\00", align 1
@.str.7 = private unnamed_addr constant [26 x i8] c"   SHA-256  test failed!\0A\00", align 1
@.str.8 = private unnamed_addr constant [26 x i8] c"   SHA-256  test passed!\0A\00", align 1
@.str.9 = private unnamed_addr constant [26 x i8] c"   SHA-512  test failed!\0A\00", align 1
@.str.10 = private unnamed_addr constant [26 x i8] c"   SHA-512  test passed!\0A\00", align 1
@.str.11 = private unnamed_addr constant [26 x i8] c"   SHA-384  test failed!\0A\00", align 1
@.str.12 = private unnamed_addr constant [26 x i8] c"   SHA-384  test passed!\0A\00", align 1
@.str.13 = private unnamed_addr constant [26 x i8] c"   HMAC-MD5 test failed!\0A\00", align 1
@.str.14 = private unnamed_addr constant [26 x i8] c"   HMAC-MD5 test passed!\0A\00", align 1
@.str.15 = private unnamed_addr constant [26 x i8] c"   HMAC-SHA test failed!\0A\00", align 1
@.str.16 = private unnamed_addr constant [26 x i8] c"   HMAC-SHA test passed!\0A\00", align 1
@.str.17 = private unnamed_addr constant [29 x i8] c"   HMAC-SHA224 test failed!\0A\00", align 1
@.str.18 = private unnamed_addr constant [29 x i8] c"   HMAC-SHA224 test passed!\0A\00", align 1
@.str.19 = private unnamed_addr constant [29 x i8] c"   HMAC-SHA256 test failed!\0A\00", align 1
@.str.20 = private unnamed_addr constant [29 x i8] c"   HMAC-SHA256 test passed!\0A\00", align 1
@.str.21 = private unnamed_addr constant [29 x i8] c"   HMAC-SHA384 test failed!\0A\00", align 1
@.str.22 = private unnamed_addr constant [29 x i8] c"   HMAC-SHA384 test passed!\0A\00", align 1
@.str.23 = private unnamed_addr constant [17 x i8] c" End HASH Tests\0A\00", align 1

; Function Attrs: nounwind uwtable
define dso_local i32 @HashTest() #0 {
  %1 = alloca i32, align 4
  %2 = alloca i32, align 4
  %3 = alloca i32, align 4
  call void @llvm.lifetime.start.p0(i64 4, ptr %2) #5
  store i32 0, ptr %2, align 4, !tbaa !4
  %4 = call i32 (ptr, ...) @printf(ptr noundef @.str)
  %5 = call i32 @md5_test()
  store i32 %5, ptr %2, align 4, !tbaa !4
  %6 = icmp ne i32 %5, 0
  br i1 %6, label %7, label %10

7:                                                ; preds = %0
  %8 = call i32 (ptr, ...) @printf(ptr noundef @.str.1)
  %9 = load i32, ptr %2, align 4, !tbaa !4
  store i32 %9, ptr %1, align 4
  store i32 1, ptr %3, align 4
  br label %94

10:                                               ; preds = %0
  %11 = call i32 (ptr, ...) @printf(ptr noundef @.str.2)
  br label %12

12:                                               ; preds = %10
  %13 = call i32 @sha_test()
  store i32 %13, ptr %2, align 4, !tbaa !4
  %14 = icmp ne i32 %13, 0
  br i1 %14, label %15, label %18

15:                                               ; preds = %12
  %16 = call i32 (ptr, ...) @printf(ptr noundef @.str.3)
  %17 = load i32, ptr %2, align 4, !tbaa !4
  store i32 %17, ptr %1, align 4
  store i32 1, ptr %3, align 4
  br label %94

18:                                               ; preds = %12
  %19 = call i32 (ptr, ...) @printf(ptr noundef @.str.4)
  br label %20

20:                                               ; preds = %18
  %21 = call i32 @sha224_test()
  store i32 %21, ptr %2, align 4, !tbaa !4
  %22 = icmp ne i32 %21, 0
  br i1 %22, label %23, label %26

23:                                               ; preds = %20
  %24 = call i32 (ptr, ...) @printf(ptr noundef @.str.5)
  %25 = load i32, ptr %2, align 4, !tbaa !4
  store i32 %25, ptr %1, align 4
  store i32 1, ptr %3, align 4
  br label %94

26:                                               ; preds = %20
  %27 = call i32 (ptr, ...) @printf(ptr noundef @.str.6)
  br label %28

28:                                               ; preds = %26
  %29 = call i32 @sha256_test()
  store i32 %29, ptr %2, align 4, !tbaa !4
  %30 = icmp ne i32 %29, 0
  br i1 %30, label %31, label %34

31:                                               ; preds = %28
  %32 = call i32 (ptr, ...) @printf(ptr noundef @.str.7)
  %33 = load i32, ptr %2, align 4, !tbaa !4
  store i32 %33, ptr %1, align 4
  store i32 1, ptr %3, align 4
  br label %94

34:                                               ; preds = %28
  %35 = call i32 (ptr, ...) @printf(ptr noundef @.str.8)
  br label %36

36:                                               ; preds = %34
  %37 = call i32 @sha512_test()
  store i32 %37, ptr %2, align 4, !tbaa !4
  %38 = icmp ne i32 %37, 0
  br i1 %38, label %39, label %42

39:                                               ; preds = %36
  %40 = call i32 (ptr, ...) @printf(ptr noundef @.str.9)
  %41 = load i32, ptr %2, align 4, !tbaa !4
  store i32 %41, ptr %1, align 4
  store i32 1, ptr %3, align 4
  br label %94

42:                                               ; preds = %36
  %43 = call i32 (ptr, ...) @printf(ptr noundef @.str.10)
  br label %44

44:                                               ; preds = %42
  %45 = call i32 @sha384_test()
  store i32 %45, ptr %2, align 4, !tbaa !4
  %46 = icmp ne i32 %45, 0
  br i1 %46, label %47, label %50

47:                                               ; preds = %44
  %48 = call i32 (ptr, ...) @printf(ptr noundef @.str.11)
  %49 = load i32, ptr %2, align 4, !tbaa !4
  store i32 %49, ptr %1, align 4
  store i32 1, ptr %3, align 4
  br label %94

50:                                               ; preds = %44
  %51 = call i32 (ptr, ...) @printf(ptr noundef @.str.12)
  br label %52

52:                                               ; preds = %50
  %53 = call i32 @hmac_md5_test()
  store i32 %53, ptr %2, align 4, !tbaa !4
  %54 = icmp ne i32 %53, 0
  br i1 %54, label %55, label %58

55:                                               ; preds = %52
  %56 = call i32 (ptr, ...) @printf(ptr noundef @.str.13)
  %57 = load i32, ptr %2, align 4, !tbaa !4
  store i32 %57, ptr %1, align 4
  store i32 1, ptr %3, align 4
  br label %94

58:                                               ; preds = %52
  %59 = call i32 (ptr, ...) @printf(ptr noundef @.str.14)
  br label %60

60:                                               ; preds = %58
  %61 = call i32 @hmac_sha_test()
  store i32 %61, ptr %2, align 4, !tbaa !4
  %62 = icmp ne i32 %61, 0
  br i1 %62, label %63, label %66

63:                                               ; preds = %60
  %64 = call i32 (ptr, ...) @printf(ptr noundef @.str.15)
  %65 = load i32, ptr %2, align 4, !tbaa !4
  store i32 %65, ptr %1, align 4
  store i32 1, ptr %3, align 4
  br label %94

66:                                               ; preds = %60
  %67 = call i32 (ptr, ...) @printf(ptr noundef @.str.16)
  br label %68

68:                                               ; preds = %66
  %69 = call i32 @hmac_sha224_test()
  store i32 %69, ptr %2, align 4, !tbaa !4
  %70 = icmp ne i32 %69, 0
  br i1 %70, label %71, label %74

71:                                               ; preds = %68
  %72 = call i32 (ptr, ...) @printf(ptr noundef @.str.17)
  %73 = load i32, ptr %2, align 4, !tbaa !4
  store i32 %73, ptr %1, align 4
  store i32 1, ptr %3, align 4
  br label %94

74:                                               ; preds = %68
  %75 = call i32 (ptr, ...) @printf(ptr noundef @.str.18)
  br label %76

76:                                               ; preds = %74
  %77 = call i32 @hmac_sha256_test()
  store i32 %77, ptr %2, align 4, !tbaa !4
  %78 = icmp ne i32 %77, 0
  br i1 %78, label %79, label %82

79:                                               ; preds = %76
  %80 = call i32 (ptr, ...) @printf(ptr noundef @.str.19)
  %81 = load i32, ptr %2, align 4, !tbaa !4
  store i32 %81, ptr %1, align 4
  store i32 1, ptr %3, align 4
  br label %94

82:                                               ; preds = %76
  %83 = call i32 (ptr, ...) @printf(ptr noundef @.str.20)
  br label %84

84:                                               ; preds = %82
  %85 = call i32 @hmac_sha384_test()
  store i32 %85, ptr %2, align 4, !tbaa !4
  %86 = icmp ne i32 %85, 0
  br i1 %86, label %87, label %90

87:                                               ; preds = %84
  %88 = call i32 (ptr, ...) @printf(ptr noundef @.str.21)
  %89 = load i32, ptr %2, align 4, !tbaa !4
  store i32 %89, ptr %1, align 4
  store i32 1, ptr %3, align 4
  br label %94

90:                                               ; preds = %84
  %91 = call i32 (ptr, ...) @printf(ptr noundef @.str.22)
  br label %92

92:                                               ; preds = %90
  %93 = call i32 (ptr, ...) @printf(ptr noundef @.str.23)
  store i32 0, ptr %1, align 4
  store i32 1, ptr %3, align 4
  br label %94

94:                                               ; preds = %92, %87, %79, %71, %63, %55, %47, %39, %31, %23, %15, %7
  call void @llvm.lifetime.end.p0(i64 4, ptr %2) #5
  %95 = load i32, ptr %1, align 4
  ret i32 %95
}