; Function Attrs: nounwind uwtable
define dso_local i32 @HashTest() local_unnamed_addr #0 {
  %puts = tail call i32 @puts(ptr nonnull dereferenceable(1) @str)
  %1 = tail call i32 @md5_test()
  %.not = icmp eq i32 %1, 0
  br i1 %.not, label %2, label %23

2:                                                ; preds = %0
  %puts23 = tail call i32 @puts(ptr nonnull dereferenceable(1) @str.1)
  %3 = tail call i32 @sha_test()
  %.not24 = icmp eq i32 %3, 0
  br i1 %.not24, label %4, label %23

4:                                                ; preds = %2
  %puts25 = tail call i32 @puts(ptr nonnull dereferenceable(1) @str.2)
  %5 = tail call i32 @sha224_test()
  %.not26 = icmp eq i32 %5, 0
  br i1 %.not26, label %6, label %23

6:                                                ; preds = %4
  %puts27 = tail call i32 @puts(ptr nonnull dereferenceable(1) @str.3)
  %7 = tail call i32 @sha256_test()
  %.not28 = icmp eq i32 %7, 0
  br i1 %.not28, label %8, label %23

8:                                                ; preds = %6
  %puts29 = tail call i32 @puts(ptr nonnull dereferenceable(1) @str.4)
  %9 = tail call i32 @sha512_test()
  %.not30 = icmp eq i32 %9, 0
  br i1 %.not30, label %10, label %23

10:                                               ; preds = %8
  %puts31 = tail call i32 @puts(ptr nonnull dereferenceable(1) @str.5)
  %11 = tail call i32 @sha384_test()
  %.not32 = icmp eq i32 %11, 0
  br i1 %.not32, label %12, label %23

12:                                               ; preds = %10
  %puts33 = tail call i32 @puts(ptr nonnull dereferenceable(1) @str.6)
  %13 = tail call i32 @hmac_md5_test()
  %.not34 = icmp eq i32 %13, 0
  br i1 %.not34, label %14, label %23

14:                                               ; preds = %12
  %puts35 = tail call i32 @puts(ptr nonnull dereferenceable(1) @str.7)
  %15 = tail call i32 @hmac_sha_test()
  %.not36 = icmp eq i32 %15, 0
  br i1 %.not36, label %16, label %23

16:                                               ; preds = %14
  %puts37 = tail call i32 @puts(ptr nonnull dereferenceable(1) @str.8)
  %17 = tail call i32 @hmac_sha224_test()
  %.not38 = icmp eq i32 %17, 0
  br i1 %.not38, label %18, label %23

18:                                               ; preds = %16
  %puts39 = tail call i32 @puts(ptr nonnull dereferenceable(1) @str.9)
  %19 = tail call i32 @hmac_sha256_test()
  %.not40 = icmp eq i32 %19, 0
  br i1 %.not40, label %20, label %23

20:                                               ; preds = %18
  %puts41 = tail call i32 @puts(ptr nonnull dereferenceable(1) @str.10)
  %21 = tail call i32 @hmac_sha384_test()
  %.not42 = icmp eq i32 %21, 0
  br i1 %.not42, label %22, label %23

22:                                               ; preds = %20
  %puts43 = tail call i32 @puts(ptr nonnull dereferenceable(1) @str.11)
  br label %23

23:                                               ; preds = %20, %18, %16, %14, %12, %10, %8, %6, %4, %2, %0, %22
  %str.12.sink = phi ptr [ @str.12, %22 ], [ @str.23, %0 ], [ @str.22, %2 ], [ @str.21, %4 ], [ @str.20, %6 ], [ @str.19, %8 ], [ @str.18, %10 ], [ @str.17, %12 ], [ @str.16, %14 ], [ @str.15, %16 ], [ @str.14, %18 ], [ @str.13, %20 ]
  %.0 = phi i32 [ 0, %22 ], [ %1, %0 ], [ %3, %2 ], [ %5, %4 ], [ %7, %6 ], [ %9, %8 ], [ %11, %10 ], [ %13, %12 ], [ %15, %14 ], [ %17, %16 ], [ %19, %18 ], [ %21, %20 ]
  %puts44 = tail call i32 @puts(ptr nonnull dereferenceable(1) %str.12.sink)
  ret i32 %.0
}